; Function Attrs: nounwind sspstrong uwtable
define internal range(i64 0, 21) i64 @sockopt_bool(i64 noundef %0) #0 {
  %2 = alloca i64, align 8
  %3 = alloca i64, align 8
  call void @llvm.lifetime.start.p0(i64 8, ptr nonnull %3) #6
  call void @llvm.lifetime.start.p0(i64 8, ptr nonnull %2) #6
  %.pr.i.i = load i64, ptr @sockopt_data.rbimpl_id, align 8, !tbaa !6
  %.not4.i.i = icmp eq i64 %.pr.i.i, 0
  br i1 %.not4.i.i, label %.lr.ph.i.i, label %sockopt_data.exit

.lr.ph.i.i:                                       ; preds = %1, %.lr.ph.i.i
  %4 = tail call i64 @rb_intern2(ptr noundef nonnull @.str.5, i64 noundef 4) #6
  store i64 %4, ptr @sockopt_data.rbimpl_id, align 8, !tbaa !6
  %.not.i.i = icmp eq i64 %4, 0
  br i1 %.not.i.i, label %.lr.ph.i.i, label %sockopt_data.exit, !llvm.loop !10

sockopt_data.exit:                                ; preds = %.lr.ph.i.i, %1
  %.lcssa.i.i = phi i64 [ %.pr.i.i, %1 ], [ %4, %.lr.ph.i.i ]
  %5 = tail call i64 @rb_attr_get(i64 noundef %0, i64 noundef %.lcssa.i.i) #6
  store i64 %5, ptr %2, align 8, !tbaa !6
  %6 = call i64 @rb_string_value(ptr noundef nonnull %2) #6
  %7 = load i64, ptr %2, align 8, !tbaa !6
  call void @llvm.lifetime.end.p0(i64 8, ptr nonnull %2) #6
  store i64 %7, ptr %3, align 8, !tbaa !6
  %8 = call i64 @rb_string_value(ptr noundef nonnull %3) #6
  %9 = load i64, ptr %3, align 8, !tbaa !6
  %10 = inttoptr i64 %9 to ptr
  %11 = getelementptr inbounds nuw i8, ptr %10, i64 16
  %12 = load i64, ptr %11, align 8, !tbaa !15
  switch i64 %12, label %20 [
    i64 1, label %13
    i64 4, label %22
  ]

13:                                               ; preds = %sockopt_data.exit
  %14 = load i64, ptr %10, align 8, !tbaa !13, !noalias !86
  %15 = and i64 %14, 8192
  %.not.i.i7 = icmp eq i64 %15, 0
  %16 = getelementptr inbounds nuw i8, ptr %10, i64 24
  br i1 %.not.i.i7, label %RSTRING_PTR.exit, label %17

17:                                               ; preds = %13
  %.sroa.2.0.copyload.i = load ptr, ptr %16, align 8
  br label %RSTRING_PTR.exit

RSTRING_PTR.exit:                                 ; preds = %13, %17
  %.sroa.2.0.i = phi ptr [ %.sroa.2.0.copyload.i, %17 ], [ %16, %13 ]
  %18 = load i8, ptr %.sroa.2.0.i, align 1, !tbaa !82
  %19 = icmp eq i8 %18, 0
  br label %29

20:                                               ; preds = %sockopt_data.exit
  %21 = load i64, ptr @rb_eTypeError, align 8, !tbaa !6
  call void (i64, ptr, ...) @rb_raise(i64 noundef %21, ptr noundef nonnull @.str.99, i32 noundef 4, i64 noundef %12) #7
  unreachable

22:                                               ; preds = %sockopt_data.exit
  %23 = load i64, ptr %10, align 8, !tbaa !13, !noalias !89
  %24 = and i64 %23, 8192
  %.not.i.i8 = icmp eq i64 %24, 0
  %25 = getelementptr inbounds nuw i8, ptr %10, i64 24
  br i1 %.not.i.i8, label %RSTRING_PTR.exit11, label %26

26:                                               ; preds = %22
  %.sroa.2.0.copyload.i9 = load ptr, ptr %25, align 8
  br label %RSTRING_PTR.exit11

RSTRING_PTR.exit11:                               ; preds = %22, %26
  %.sroa.2.0.i10 = phi ptr [ %.sroa.2.0.copyload.i9, %26 ], [ %25, %22 ]
  %27 = load i32, ptr %.sroa.2.0.i10, align 1
  %28 = icmp eq i32 %27, 0
  br label %29

29:                                               ; preds = %RSTRING_PTR.exit11, %RSTRING_PTR.exit
  %.sink = phi i1 [ %28, %RSTRING_PTR.exit11 ], [ %19, %RSTRING_PTR.exit ]
  %30 = select i1 %.sink, i64 0, i64 20
  call void @llvm.lifetime.end.p0(i64 8, ptr nonnull %3) #6
  ret i64 %30
}